; Function Attrs: mustprogress uwtable
define dso_local void @_ZN7V3Order15buildOrderGraphEP10AstNetlistRKSt6vectorIPN7V3Sched12LogicByScopeESaIS5_EERKSt13unordered_mapIPK10AstSenTreeSD_St4hashISD_ESt8equal_toISD_ESaISt4pairIKSD_SD_EEE(ptr dead_on_unwind noalias writable writeonly sret(%"class.std::unique_ptr") align 8 captures(none) initializes((0, 8)) %0, ptr noundef %1, ptr noundef nonnull align 8 dereferenceable(24) %2, ptr noundef nonnull align 8 dereferenceable(56) %3) local_unnamed_addr #3 personality ptr @__gxx_personality_v0 {
  %5 = alloca %class.OrderGraphBuilder, align 8
  tail call void @llvm.experimental.noalias.scope.decl(metadata !4)
  call void @llvm.lifetime.start.p0(i64 208, ptr nonnull %5) #23, !noalias !4
  call void @_ZN17OrderGraphBuilderC2EP10AstNetlistRKSt6vectorIPN7V3Sched12LogicByScopeESaIS5_EERKSt13unordered_mapIPK10AstSenTreeSD_St4hashISD_ESt8equal_toISD_ESaISt4pairIKSD_SD_EEE(ptr noundef nonnull align 8 dereferenceable(208) %5, ptr noundef %1, ptr noundef nonnull align 8 dereferenceable(24) %2, ptr noundef nonnull align 8 dereferenceable(56) %3), !noalias !4
  %6 = getelementptr inbounds nuw i8, ptr %5, i64 120
  %7 = load ptr, ptr %6, align 8, !tbaa !7, !noalias !4
  store ptr %7, ptr %0, align 8, !tbaa !42, !alias.scope !4
  call void @_ZN17OrderGraphBuilderD2Ev(ptr noundef nonnull align 8 dereferenceable(208) %5) #23, !noalias !4
  call void @llvm.lifetime.end.p0(i64 208, ptr nonnull %5) #23, !noalias !4
  ret void
}